; Function Attrs: mustprogress uwtable
define void @_ZN2cv7hconcatERKNS_11_InputArrayERKNS_12_OutputArrayE(ptr noundef nonnull align 8 dereferenceable(24) %0, ptr noundef nonnull align 8 dereferenceable(24) %1) local_unnamed_addr #1 personality ptr @__gxx_personality_v0 {
  %3 = alloca %"class.cv::utils::trace::details::Region", align 8
  %4 = alloca %"class.std::vector", align 8
  call void @llvm.lifetime.start.p0(i64 16, ptr nonnull %3) #17
  call void @_ZN2cv5utils5trace7details6RegionC1ERKNS3_21LocationStaticStorageE(ptr noundef nonnull align 8 dereferenceable(12) %3, ptr noundef nonnull align 8 dereferenceable(32) @_ZZN2cv7hconcatERKNS_11_InputArrayERKNS_12_OutputArrayEE24__cv_trace_location_fn89)
  call void @llvm.lifetime.start.p0(i64 24, ptr nonnull %4) #17
  call void @llvm.memset.p0.i64(ptr noundef nonnull align 8 dereferenceable(24) %4, i8 0, i64 24, i1 false)
  invoke void @_ZNK2cv11_InputArray12getMatVectorERSt6vectorINS_3MatESaIS2_EE(ptr noundef nonnull align 8 dereferenceable(24) %0, ptr noundef nonnull align 8 dereferenceable(24) %4)
          to label %5 unwind label %26

5:                                                ; preds = %2
  %6 = load ptr, ptr %4, align 8, !tbaa !57
  %7 = getelementptr inbounds nuw i8, ptr %4, i64 8
  %8 = load ptr, ptr %7, align 8, !tbaa !57
  %9 = icmp eq ptr %6, %8
  %spec.select = select i1 %9, ptr null, ptr %6
  %10 = ptrtoint ptr %8 to i64
  %11 = ptrtoint ptr %6 to i64
  %12 = sub i64 %10, %11
  %13 = sdiv exact i64 %12, 96
  invoke void @_ZN2cv7hconcatEPKNS_3MatEmRKNS_12_OutputArrayE(ptr noundef %spec.select, i64 noundef %13, ptr noundef nonnull align 8 dereferenceable(24) %1)
          to label %14 unwind label %26

14:                                               ; preds = %5
  %15 = load ptr, ptr %4, align 8, !tbaa !59
  %16 = load ptr, ptr %7, align 8, !tbaa !61
  %.not4.i.i.i.i = icmp eq ptr %15, %16
  br i1 %.not4.i.i.i.i, label %_ZSt8_DestroyIPN2cv3MatES1_EvT_S3_RSaIT0_E.exit.i, label %.lr.ph.i.i.i.i

.lr.ph.i.i.i.i:                                   ; preds = %14, %.lr.ph.i.i.i.i
  %.05.i.i.i.i = phi ptr [ %17, %.lr.ph.i.i.i.i ], [ %15, %14 ]
  call void @_ZN2cv3MatD1Ev(ptr noundef nonnull align 8 dereferenceable(96) %.05.i.i.i.i) #17
  %17 = getelementptr inbounds nuw i8, ptr %.05.i.i.i.i, i64 96
  %.not.i.i.i.i = icmp eq ptr %17, %16
  br i1 %.not.i.i.i.i, label %_ZSt8_DestroyIPN2cv3MatES1_EvT_S3_RSaIT0_E.exitthread-pre-split.i, label %.lr.ph.i.i.i.i, !llvm.loop !62

_ZSt8_DestroyIPN2cv3MatES1_EvT_S3_RSaIT0_E.exitthread-pre-split.i: ; preds = %.lr.ph.i.i.i.i
  %.pr.i = load ptr, ptr %4, align 8, !tbaa !59
  br label %_ZSt8_DestroyIPN2cv3MatES1_EvT_S3_RSaIT0_E.exit.i

_ZSt8_DestroyIPN2cv3MatES1_EvT_S3_RSaIT0_E.exit.i: ; preds = %_ZSt8_DestroyIPN2cv3MatES1_EvT_S3_RSaIT0_E.exitthread-pre-split.i, %14
  %18 = phi ptr [ %.pr.i, %_ZSt8_DestroyIPN2cv3MatES1_EvT_S3_RSaIT0_E.exitthread-pre-split.i ], [ %15, %14 ]
  %.not.i.i.i = icmp eq ptr %18, null
  br i1 %.not.i.i.i, label %_ZNSt6vectorIN2cv3MatESaIS1_EED2Ev.exit, label %19

19:                                               ; preds = %_ZSt8_DestroyIPN2cv3MatES1_EvT_S3_RSaIT0_E.exit.i
  call void @_ZdlPv(ptr noundef nonnull %18) #19
  br label %_ZNSt6vectorIN2cv3MatESaIS1_EED2Ev.exit

_ZNSt6vectorIN2cv3MatESaIS1_EED2Ev.exit:          ; preds = %_ZSt8_DestroyIPN2cv3MatES1_EvT_S3_RSaIT0_E.exit.i, %19
  call void @llvm.lifetime.end.p0(i64 24, ptr nonnull %4) #17
  %20 = getelementptr inbounds nuw i8, ptr %3, i64 8
  %21 = load i32, ptr %20, align 8, !tbaa !48
  %.not.i = icmp eq i32 %21, 0
  br i1 %.not.i, label %_ZN2cv5utils5trace7details6RegionD2Ev.exit, label %22

22:                                               ; preds = %_ZNSt6vectorIN2cv3MatESaIS1_EED2Ev.exit
  invoke void @_ZN2cv5utils5trace7details6Region7destroyEv(ptr noundef nonnull align 8 dereferenceable(12) %3)
          to label %_ZN2cv5utils5trace7details6RegionD2Ev.exit unwind label %23

23:                                               ; preds = %22
  %24 = landingpad { ptr, i32 }
          catch ptr null
  %25 = extractvalue { ptr, i32 } %24, 0
  call void @__clang_call_terminate(ptr %25) #20
  unreachable

_ZN2cv5utils5trace7details6RegionD2Ev.exit:       ; preds = %_ZNSt6vectorIN2cv3MatESaIS1_EED2Ev.exit, %22
  call void @llvm.lifetime.end.p0(i64 16, ptr nonnull %3) #17
  ret void

26:                                               ; preds = %5, %2
  %27 = landingpad { ptr, i32 }
          cleanup
  call void @_ZNSt6vectorIN2cv3MatESaIS1_EED2Ev(ptr noundef nonnull align 8 dereferenceable(24) %4) #17
  call void @llvm.lifetime.end.p0(i64 24, ptr nonnull %4) #17
  call void @_ZN2cv5utils5trace7details6RegionD2Ev(ptr noundef nonnull align 8 dereferenceable(12) %3) #17
  call void @llvm.lifetime.end.p0(i64 16, ptr nonnull %3) #17
  resume { ptr, i32 } %27
}